; Function Attrs: nounwind uwtable
define dso_local noundef i32 @dbuf_put(ptr nocapture noundef %0, ptr nocapture noundef readonly %1, i64 noundef %2) local_unnamed_addr #8 {
  %4 = getelementptr inbounds i8, ptr %0, i64 8
  %5 = load i64, ptr %4, align 8
  %6 = add i64 %5, %2
  %7 = getelementptr inbounds i8, ptr %0, i64 16
  %8 = load i64, ptr %7, align 8
  %9 = icmp ugt i64 %6, %8
  br i1 %9, label %10, label %._crit_edge

._crit_edge:                                      ; preds = %3
  %.pre = load ptr, ptr %0, align 8
  br label %23

10:                                               ; preds = %3
  %11 = getelementptr inbounds i8, ptr %0, i64 24
  %12 = load i32, ptr %11, align 8
  %.not.i = icmp eq i32 %12, 0
  br i1 %.not.i, label %13, label %dbuf_realloc.exit.thread

13:                                               ; preds = %10
  %14 = mul i64 %8, 3
  %15 = lshr i64 %14, 1
  %spec.select.i = tail call i64 @llvm.umax.i64(i64 %15, i64 %6)
  %16 = getelementptr inbounds i8, ptr %0, i64 32
  %17 = load ptr, ptr %16, align 8
  %18 = getelementptr inbounds i8, ptr %0, i64 40
  %19 = load ptr, ptr %18, align 8
  %20 = load ptr, ptr %0, align 8
  %21 = tail call ptr %17(ptr noundef %19, ptr noundef %20, i64 noundef %spec.select.i) #19
  %.not22.i = icmp eq ptr %21, null
  br i1 %.not22.i, label %22, label %dbuf_realloc.exit

22:                                               ; preds = %13
  store i32 1, ptr %11, align 8
  br label %dbuf_realloc.exit.thread

dbuf_realloc.exit:                                ; preds = %13
  store ptr %21, ptr %0, align 8
  store i64 %spec.select.i, ptr %7, align 8
  %.pre15 = load i64, ptr %4, align 8
  br label %23

23:                                               ; preds = %._crit_edge, %dbuf_realloc.exit
  %24 = phi i64 [ %5, %._crit_edge ], [ %.pre15, %dbuf_realloc.exit ]
  %25 = phi ptr [ %.pre, %._crit_edge ], [ %21, %dbuf_realloc.exit ]
  %26 = getelementptr i8, ptr %25, i64 %24
  tail call void @llvm.memcpy.p0.p0.i64(ptr align 1 %26, ptr align 1 %1, i64 %2, i1 false)
  %27 = load i64, ptr %4, align 8
  %28 = add i64 %27, %2
  store i64 %28, ptr %4, align 8
  br label %dbuf_realloc.exit.thread

dbuf_realloc.exit.thread:                         ; preds = %10, %22, %23
  %.0 = phi i32 [ 0, %23 ], [ -1, %22 ], [ -1, %10 ]
  ret i32 %.0
}